target datalayout = "e-m:e-p270:32:32-p271:32:32-p272:64:64-i64:64-i128:128-f80:128-n8:16:32:64-S128"
target triple = "x86_64-pc-linux-gnu"

%class.Expression = type { ptr, i32, i32, ptr }
%class.Type = type { i32, ptr, i32, %"class.std::vector", %"class.std::vector.0", i32, i8, i8, i8, i8, i8, %"class.std::vector.5", %"class.std::vector.10" }
%"class.std::vector" = type { %"struct.std::_Vector_base" }
%"struct.std::_Vector_base" = type { %"struct.std::_Vector_base<unsigned int, std::allocator<unsigned int>>::_Vector_impl" }
%"struct.std::_Vector_base<unsigned int, std::allocator<unsigned int>>::_Vector_impl" = type { %"struct.std::_Vector_base<unsigned int, std::allocator<unsigned int>>::_Vector_impl_data" }
%"struct.std::_Vector_base<unsigned int, std::allocator<unsigned int>>::_Vector_impl_data" = type { ptr, ptr, ptr }
%"class.std::vector.0" = type { %"struct.std::_Vector_base.1" }
%"struct.std::_Vector_base.1" = type { %"struct.std::_Vector_base<const Type *, std::allocator<const Type *>>::_Vector_impl" }
%"struct.std::_Vector_base<const Type *, std::allocator<const Type *>>::_Vector_impl" = type { %"struct.std::_Vector_base<const Type *, std::allocator<const Type *>>::_Vector_impl_data" }
%"struct.std::_Vector_base<const Type *, std::allocator<const Type *>>::_Vector_impl_data" = type { ptr, ptr, ptr }
%"class.std::vector.5" = type { %"struct.std::_Vector_base.6" }
%"struct.std::_Vector_base.6" = type { %"struct.std::_Vector_base<CVQualifiers, std::allocator<CVQualifiers>>::_Vector_impl" }
%"struct.std::_Vector_base<CVQualifiers, std::allocator<CVQualifiers>>::_Vector_impl" = type { %"struct.std::_Vector_base<CVQualifiers, std::allocator<CVQualifiers>>::_Vector_impl_data" }
%"struct.std::_Vector_base<CVQualifiers, std::allocator<CVQualifiers>>::_Vector_impl_data" = type { ptr, ptr, ptr }
%"class.std::vector.10" = type { %"struct.std::_Vector_base.11" }
%"struct.std::_Vector_base.11" = type { %"struct.std::_Vector_base<int, std::allocator<int>>::_Vector_impl" }
%"struct.std::_Vector_base<int, std::allocator<int>>::_Vector_impl" = type { %"struct.std::_Vector_base<int, std::allocator<int>>::_Vector_impl_data" }
%"struct.std::_Vector_base<int, std::allocator<int>>::_Vector_impl_data" = type { ptr, ptr, ptr }

@_ZN15ExpressionCommaC1ERK10ExpressionS2_ = dso_local unnamed_addr alias void (ptr, ptr, ptr), ptr @_ZN15ExpressionCommaC2ERK10ExpressionS2_

; Function Attrs: mustprogress uwtable
define dso_local void @_Z14cast_if_neededP10Expression(ptr noundef %0) #4 {
  %2 = alloca ptr, align 8
  %3 = alloca ptr, align 8
  store ptr %0, ptr %2, align 8, !tbaa !4
  call void @llvm.lifetime.start.p0(i64 8, ptr %3) #3
  %4 = load ptr, ptr %2, align 8, !tbaa !4
  %5 = load ptr, ptr %4, align 8, !tbaa !9
  %6 = getelementptr inbounds ptr, ptr %5, i64 3
  %7 = load ptr, ptr %6, align 8
  %8 = call noundef nonnull align 8 dereferenceable(136) ptr %7(ptr noundef nonnull align 8 dereferenceable(24) %4)
  store ptr %8, ptr %3, align 8, !tbaa !11
  %9 = load ptr, ptr %2, align 8, !tbaa !4
  %10 = getelementptr inbounds nuw %class.Expression, ptr %9, i32 0, i32 1
  %11 = load i32, ptr %10, align 8, !tbaa !13
  %12 = icmp eq i32 %11, 0
  br i1 %12, label %13, label %28

13:                                               ; preds = %1
  %14 = load ptr, ptr %3, align 8, !tbaa !11
  %15 = getelementptr inbounds nuw %class.Type, ptr %14, i32 0, i32 0
  %16 = load i32, ptr %15, align 8, !tbaa !17
  %17 = icmp eq i32 %16, 1
  br i1 %17, label %18, label %28

18:                                               ; preds = %13
  %19 = load ptr, ptr %2, align 8, !tbaa !4
  %20 = load ptr, ptr %19, align 8, !tbaa !9
  %21 = getelementptr inbounds ptr, ptr %20, i64 15
  %22 = load ptr, ptr %21, align 8
  %23 = call noundef zeroext i1 %22(ptr noundef nonnull align 8 dereferenceable(24) %19, i32 noundef 0)
  br i1 %23, label %24, label %28

24:                                               ; preds = %18
  %25 = load ptr, ptr %3, align 8, !tbaa !11
  %26 = load ptr, ptr %2, align 8, !tbaa !4
  %27 = getelementptr inbounds nuw %class.Expression, ptr %26, i32 0, i32 3
  store ptr %25, ptr %27, align 8, !tbaa !41
  br label %28

28:                                               ; preds = %24, %18, %13, %1
  call void @llvm.lifetime.end.p0(i64 8, ptr %3) #3
  ret void
}

; Function Attrs: mustprogress uwtable
define dso_local noundef ptr @_ZN15ExpressionComma11make_randomER9CGContextPK4TypePK12CVQualifiers(ptr noundef nonnull align 8 dereferenceable(216) %0, ptr noundef %1, ptr noundef %2) #4 align 2 personality ptr @__gxx_personality_v0 {
  %4 = alloca ptr, align 8
  %5 = alloca ptr, align 8
  %6 = alloca ptr, align 8
  %7 = alloca ptr, align 8
  %8 = alloca ptr, align 8
  %9 = alloca ptr, align 8
  %10 = alloca ptr, align 8
  %11 = alloca i32, align 4
  store ptr %0, ptr %4, align 8, !tbaa !42
  store ptr %1, ptr %5, align 8, !tbaa !11
  store ptr %2, ptr %6, align 8, !tbaa !44
  call void @llvm.lifetime.start.p0(i64 8, ptr %7) #3
  %12 = load ptr, ptr %4, align 8, !tbaa !42
  %13 = call noundef ptr @_ZN10Expression11make_randomER9CGContextPK4TypePK12CVQualifiersbb9eTermType(ptr noundef nonnull align 8 dereferenceable(216) %12, ptr noundef null, ptr noundef null, i1 noundef zeroext false, i1 noundef zeroext true, i32 noundef 5)
  store ptr %13, ptr %7, align 8, !tbaa !4
  call void @llvm.lifetime.start.p0(i64 8, ptr %8) #3
  %14 = load ptr, ptr %4, align 8, !tbaa !42
  %15 = load ptr, ptr %5, align 8, !tbaa !11
  %16 = load ptr, ptr %6, align 8, !tbaa !44
  %17 = call noundef ptr @_ZN10Expression11make_randomER9CGContextPK4TypePK12CVQualifiersbb9eTermType(ptr noundef nonnull align 8 dereferenceable(216) %14, ptr noundef %15, ptr noundef %16, i1 noundef zeroext false, i1 noundef zeroext false, i32 noundef 5)
  store ptr %17, ptr %8, align 8, !tbaa !4
  %18 = call noundef zeroext i1 @_ZN9CGOptions8lang_cppEv()
  br i1 %18, label %19, label %21

19:                                               ; preds = %3
  %20 = load ptr, ptr %8, align 8, !tbaa !4
  call void @_Z14cast_if_neededP10Expression(ptr noundef %20)
  br label %21

21:                                               ; preds = %19, %3
  call void @llvm.lifetime.start.p0(i64 8, ptr %9) #3
  %22 = call noalias noundef nonnull ptr @_Znwm(i64 noundef 40) #17
  %23 = load ptr, ptr %7, align 8, !tbaa !4
  %24 = load ptr, ptr %8, align 8, !tbaa !4
  invoke void @_ZN15ExpressionCommaC1ERK10ExpressionS2_(ptr noundef nonnull align 8 dereferenceable(40) %22, ptr noundef nonnull align 8 dereferenceable(24) %23, ptr noundef nonnull align 8 dereferenceable(24) %24)
          to label %25 unwind label %27

25:                                               ; preds = %21
  store ptr %22, ptr %9, align 8, !tbaa !45
  %26 = load ptr, ptr %9, align 8, !tbaa !45
  call void @llvm.lifetime.end.p0(i64 8, ptr %9) #3
  call void @llvm.lifetime.end.p0(i64 8, ptr %8) #3
  call void @llvm.lifetime.end.p0(i64 8, ptr %7) #3
  ret ptr %26

27:                                               ; preds = %21
  %28 = landingpad { ptr, i32 }
          cleanup
  %29 = extractvalue { ptr, i32 } %28, 0
  store ptr %29, ptr %10, align 8
  %30 = extractvalue { ptr, i32 } %28, 1
  store i32 %30, ptr %11, align 4
  call void @_ZdlPvm(ptr noundef %22, i64 noundef 40) #18
  call void @llvm.lifetime.end.p0(i64 8, ptr %9) #3
  call void @llvm.lifetime.end.p0(i64 8, ptr %8) #3
  call void @llvm.lifetime.end.p0(i64 8, ptr %7) #3
  br label %31

31:                                               ; preds = %27
  %32 = load ptr, ptr %10, align 8
  %33 = load i32, ptr %11, align 4
  %34 = insertvalue { ptr, i32 } poison, ptr %32, 0
  %35 = insertvalue { ptr, i32 } %34, i32 %33, 1
  resume { ptr, i32 } %35
}