; Function Attrs: mustprogress uwtable
define dso_local noundef nonnull ptr @_ZN15ExpressionComma11make_randomER9CGContextPK4TypePK12CVQualifiers(ptr noundef nonnull align 8 dereferenceable(216) %0, ptr noundef %1, ptr noundef %2) local_unnamed_addr #3 align 2 personality ptr @__gxx_personality_v0 {
  %4 = tail call noundef ptr @_ZN10Expression11make_randomER9CGContextPK4TypePK12CVQualifiersbb9eTermType(ptr noundef nonnull align 8 dereferenceable(216) %0, ptr noundef null, ptr noundef null, i1 noundef zeroext false, i1 noundef zeroext true, i32 noundef 5)
  %5 = tail call noundef ptr @_ZN10Expression11make_randomER9CGContextPK4TypePK12CVQualifiersbb9eTermType(ptr noundef nonnull align 8 dereferenceable(216) %0, ptr noundef %1, ptr noundef %2, i1 noundef zeroext false, i1 noundef zeroext false, i32 noundef 5)
  %6 = tail call noundef zeroext i1 @_ZN9CGOptions8lang_cppEv()
  br i1 %6, label %7, label %_Z14cast_if_neededP10Expression.exit

7:                                                ; preds = %3
  %8 = load ptr, ptr %5, align 8, !tbaa !4
  %9 = getelementptr inbounds nuw i8, ptr %8, i64 24
  %10 = load ptr, ptr %9, align 8
  %11 = tail call noundef nonnull align 8 dereferenceable(136) ptr %10(ptr noundef nonnull align 8 dereferenceable(24) %5)
  %12 = getelementptr inbounds nuw i8, ptr %5, i64 8
  %13 = load i32, ptr %12, align 8, !tbaa !7
  %14 = icmp eq i32 %13, 0
  br i1 %14, label %15, label %_Z14cast_if_neededP10Expression.exit

15:                                               ; preds = %7
  %16 = load i32, ptr %11, align 8, !tbaa !14
  %17 = icmp eq i32 %16, 1
  br i1 %17, label %18, label %_Z14cast_if_neededP10Expression.exit

18:                                               ; preds = %15
  %19 = load ptr, ptr %5, align 8, !tbaa !4
  %20 = getelementptr inbounds nuw i8, ptr %19, i64 120
  %21 = load ptr, ptr %20, align 8
  %22 = tail call noundef zeroext i1 %21(ptr noundef nonnull align 8 dereferenceable(24) %5, i32 noundef 0)
  br i1 %22, label %23, label %_Z14cast_if_neededP10Expression.exit

23:                                               ; preds = %18
  %24 = getelementptr inbounds nuw i8, ptr %5, i64 16
  store ptr %11, ptr %24, align 8, !tbaa !38
  br label %_Z14cast_if_neededP10Expression.exit

_Z14cast_if_neededP10Expression.exit:             ; preds = %23, %18, %15, %7, %3
  %25 = tail call noalias noundef nonnull dereferenceable(40) ptr @_Znwm(i64 noundef 40) #14
  invoke void @_ZN10ExpressionC2E9eTermType(ptr noundef nonnull align 8 dereferenceable(40) %25, i32 noundef 4)
          to label %26 unwind label %29

26:                                               ; preds = %_Z14cast_if_neededP10Expression.exit
  store ptr getelementptr inbounds nuw inrange(-16, 176) (i8, ptr @_ZTV15ExpressionComma, i64 16), ptr %25, align 8, !tbaa !4
  %27 = getelementptr inbounds nuw i8, ptr %25, i64 24
  store ptr %4, ptr %27, align 8, !tbaa !39
  %28 = getelementptr inbounds nuw i8, ptr %25, i64 32
  store ptr %5, ptr %28, align 8, !tbaa !39
  ret ptr %25

29:                                               ; preds = %_Z14cast_if_neededP10Expression.exit
  %30 = landingpad { ptr, i32 }
          cleanup
  tail call void @_ZdlPvm(ptr noundef nonnull %25, i64 noundef 40) #15
  resume { ptr, i32 } %30
}